target datalayout = "e-m:e-p270:32:32-p271:32:32-p272:64:64-i64:64-i128:128-f80:128-n8:16:32:64-S128"
target triple = "x86_64-pc-linux-gnu"

%struct.dynhds = type { ptr, i64, i64, i64, i64, i64, i32 }
%struct.http_resp = type { i32, ptr, %struct.dynhds, %struct.dynhds, ptr }

@Curl_cstrdup = external global ptr, align 8
@Curl_ccalloc = external global ptr, align 8

; Function Attrs: nounwind uwtable
define hidden i32 @Curl_http_resp_make(ptr noundef %0, i32 noundef %1, ptr noundef %2) #0 {
  %4 = alloca ptr, align 8
  %5 = alloca i32, align 4
  %6 = alloca ptr, align 8
  %7 = alloca ptr, align 8
  %8 = alloca i32, align 4
  store ptr %0, ptr %4, align 8, !tbaa !259
  store i32 %1, ptr %5, align 4, !tbaa !78
  store ptr %2, ptr %6, align 8, !tbaa !82
  call void @llvm.lifetime.start.p0(i64 8, ptr %7) #7
  call void @llvm.lifetime.start.p0(i64 4, ptr %8) #7
  store i32 27, ptr %8, align 4, !tbaa !78
  %9 = load ptr, ptr @Curl_ccalloc, align 8, !tbaa !96
  %10 = call ptr %9(i64 noundef 1, i64 noundef 136)
  store ptr %10, ptr %7, align 8, !tbaa !261
  %11 = load ptr, ptr %7, align 8, !tbaa !261
  %12 = icmp ne ptr %11, null
  br i1 %12, label %14, label %13

13:                                               ; preds = %3
  br label %37

14:                                               ; preds = %3
  %15 = load i32, ptr %5, align 4, !tbaa !78
  %16 = load ptr, ptr %7, align 8, !tbaa !261
  %17 = getelementptr inbounds nuw %struct.http_resp, ptr %16, i32 0, i32 0
  store i32 %15, ptr %17, align 8, !tbaa !263
  %18 = load ptr, ptr %6, align 8, !tbaa !82
  %19 = icmp ne ptr %18, null
  br i1 %19, label %20, label %32

20:                                               ; preds = %14
  %21 = load ptr, ptr @Curl_cstrdup, align 8, !tbaa !96
  %22 = load ptr, ptr %6, align 8, !tbaa !82
  %23 = call ptr %21(ptr noundef %22)
  %24 = load ptr, ptr %7, align 8, !tbaa !261
  %25 = getelementptr inbounds nuw %struct.http_resp, ptr %24, i32 0, i32 1
  store ptr %23, ptr %25, align 8, !tbaa !265
  %26 = load ptr, ptr %7, align 8, !tbaa !261
  %27 = getelementptr inbounds nuw %struct.http_resp, ptr %26, i32 0, i32 1
  %28 = load ptr, ptr %27, align 8, !tbaa !265
  %29 = icmp ne ptr %28, null
  br i1 %29, label %31, label %30

30:                                               ; preds = %20
  br label %37

31:                                               ; preds = %20
  br label %32

32:                                               ; preds = %31, %14
  %33 = load ptr, ptr %7, align 8, !tbaa !261
  %34 = getelementptr inbounds nuw %struct.http_resp, ptr %33, i32 0, i32 2
  call void @Curl_dynhds_init(ptr noundef %34, i64 noundef 0, i64 noundef 1048576)
  %35 = load ptr, ptr %7, align 8, !tbaa !261
  %36 = getelementptr inbounds nuw %struct.http_resp, ptr %35, i32 0, i32 3
  call void @Curl_dynhds_init(ptr noundef %36, i64 noundef 0, i64 noundef 1048576)
  store i32 0, ptr %8, align 4, !tbaa !78
  br label %37

37:                                               ; preds = %32, %30, %13
  %38 = load i32, ptr %8, align 4, !tbaa !78
  %39 = icmp ne i32 %38, 0
  br i1 %39, label %40, label %45

40:                                               ; preds = %37
  %41 = load ptr, ptr %7, align 8, !tbaa !261
  %42 = icmp ne ptr %41, null
  br i1 %42, label %43, label %45

43:                                               ; preds = %40
  %44 = load ptr, ptr %7, align 8, !tbaa !261
  call void @Curl_http_resp_free(ptr noundef %44)
  br label %45

45:                                               ; preds = %43, %40, %37
  %46 = load i32, ptr %8, align 4, !tbaa !78
  %47 = icmp ne i32 %46, 0
  br i1 %47, label %48, label %49

48:                                               ; preds = %45
  br label %51

49:                                               ; preds = %45
  %50 = load ptr, ptr %7, align 8, !tbaa !261
  br label %51

51:                                               ; preds = %49, %48
  %52 = phi ptr [ null, %48 ], [ %50, %49 ]
  %53 = load ptr, ptr %4, align 8, !tbaa !259
  store ptr %52, ptr %53, align 8, !tbaa !261
  %54 = load i32, ptr %8, align 4, !tbaa !78
  call void @llvm.lifetime.end.p0(i64 4, ptr %8) #7
  call void @llvm.lifetime.end.p0(i64 8, ptr %7) #7
  ret i32 %54
}